; Function Attrs: mustprogress nounwind uwtable
define void @_ZN8WasmEdge4Host4WASI6VINodeC2ENS1_5INodeE15__wasi_rights_tS4_NSt7__cxx1112basic_stringIcSt11char_traitsIcESaIcEEE(ptr noundef nonnull align 8 dereferenceable(264) %0, ptr nocapture noundef %1, i64 noundef %2, i64 noundef %3, ptr noundef nonnull %4) unnamed_addr #0 align 2 personality ptr @__gxx_personality_v0 {
  tail call void @llvm.memset.p0.i64(ptr noundef nonnull align 8 dereferenceable(16) %0, i8 0, i64 16, i1 false)
  %6 = getelementptr inbounds i8, ptr %0, i64 16
  %7 = load i32, ptr %1, align 4
  store i32 -1, ptr %1, align 4
  store i32 %7, ptr %6, align 8
  %8 = getelementptr inbounds i8, ptr %0, i64 20
  %9 = getelementptr inbounds i8, ptr %1, i64 4
  %10 = load i8, ptr %9, align 4
  %11 = and i8 %10, 1
  %12 = load i8, ptr %8, align 4
  %13 = and i8 %12, -2
  %14 = or disjoint i8 %13, %11
  store i8 %14, ptr %8, align 4
  %15 = load i8, ptr %9, align 4
  %.lobit.i.i = and i8 %15, 2
  %16 = and i8 %14, -3
  %17 = or disjoint i8 %16, %.lobit.i.i
  store i8 %17, ptr %8, align 4
  %18 = load i8, ptr %9, align 4
  %19 = and i8 %18, -4
  %20 = or disjoint i8 %19, 1
  store i8 %20, ptr %9, align 4
  %21 = getelementptr inbounds i8, ptr %0, i64 24
  %22 = getelementptr inbounds i8, ptr %1, i64 8
  tail call void @llvm.memcpy.p0.p0.i64(ptr noundef nonnull align 8 dereferenceable(152) %21, ptr noundef nonnull align 8 dereferenceable(152) %22, i64 152, i1 false)
  %23 = getelementptr inbounds i8, ptr %0, i64 176
  %24 = getelementptr inbounds i8, ptr %1, i64 160
  %25 = getelementptr inbounds i8, ptr %0, i64 184
  tail call void @llvm.memset.p0.i64(ptr noundef nonnull align 8 dereferenceable(40) %23, i8 0, i64 40, i1 false)
  %26 = load ptr, ptr %24, align 8
  store ptr %26, ptr %23, align 8
  store ptr null, ptr %24, align 8
  %27 = getelementptr inbounds i8, ptr %1, i64 168
  %28 = load i64, ptr %25, align 8
  %29 = load i64, ptr %27, align 8
  store i64 %29, ptr %25, align 8
  store i64 %28, ptr %27, align 8
  %30 = getelementptr inbounds i8, ptr %0, i64 216
  store i64 %2, ptr %30, align 8
  %31 = getelementptr inbounds i8, ptr %0, i64 224
  store i64 %3, ptr %31, align 8
  %32 = getelementptr inbounds i8, ptr %0, i64 232
  tail call void @_ZNSt7__cxx1112basic_stringIcSt11char_traitsIcESaIcEEC1EOS4_(ptr noundef nonnull align 8 dereferenceable(32) %32, ptr noundef nonnull align 8 dereferenceable(32) %4) #14
  ret void
}